; Function Attrs: mustprogress uwtable
define noundef zeroext i1 @_ZN4base7Process22SetProcessBackgroundedEb(ptr noundef nonnull readonly align 4 captures(none) dereferenceable(4) %0, i1 noundef zeroext %1) local_unnamed_addr #0 align 2 personality ptr @__gxx_personality_v0 {
  %3 = alloca %struct.rlimit, align 8
  %4 = load atomic volatile i64, ptr @_ZZN4base7Process22CanBackgroundProcessesEvE25check_for_nice_permission acquire, align 8
  %.not.i.i.i = icmp ult i64 %4, 2
  br i1 %.not.i.i.i, label %5, label %_ZN4base7Process22CanBackgroundProcessesEv.exit

5:                                                ; preds = %2
  %6 = tail call noundef zeroext i1 @_ZN4base8internal17NeedsLazyInstanceEPl(ptr noundef nonnull @_ZZN4base7Process22CanBackgroundProcessesEvE25check_for_nice_permission)
  br i1 %6, label %7, label %_ZN4base7Process22CanBackgroundProcessesEv.exit

7:                                                ; preds = %5
  store i8 0, ptr getelementptr inbounds nuw (i8, ptr @_ZZN4base7Process22CanBackgroundProcessesEvE25check_for_nice_permission, i64 8), align 8, !tbaa !3
  call void @llvm.lifetime.start.p0(i64 16, ptr nonnull %3) #5
  %8 = call i32 @getrlimit(i32 noundef 13, ptr noundef nonnull %3) #5
  %9 = icmp eq i32 %8, 0
  %10 = load i64, ptr %3, align 8
  %11 = trunc i64 %10 to i32
  %12 = icmp sgt i32 %11, 19
  %or.cond.i.i.i.i.i = select i1 %9, i1 %12, i1 false
  br i1 %or.cond.i.i.i.i.i, label %13, label %_ZN4base25DefaultLazyInstanceTraitsINS_12_GLOBAL__N_122CheckForNicePermissionEE3NewEPv.exit.i.i.i

13:                                               ; preds = %7
  store i8 1, ptr getelementptr inbounds nuw (i8, ptr @_ZZN4base7Process22CanBackgroundProcessesEvE25check_for_nice_permission, i64 8), align 8, !tbaa !3
  br label %_ZN4base25DefaultLazyInstanceTraitsINS_12_GLOBAL__N_122CheckForNicePermissionEE3NewEPv.exit.i.i.i

_ZN4base25DefaultLazyInstanceTraitsINS_12_GLOBAL__N_122CheckForNicePermissionEE3NewEPv.exit.i.i.i: ; preds = %13, %7
  call void @llvm.lifetime.end.p0(i64 16, ptr nonnull %3) #5
  call void @_ZN4base8internal20CompleteLazyInstanceEPllPvPFvS2_E(ptr noundef nonnull @_ZZN4base7Process22CanBackgroundProcessesEvE25check_for_nice_permission, i64 noundef ptrtoint (ptr getelementptr inbounds nuw (i8, ptr @_ZZN4base7Process22CanBackgroundProcessesEvE25check_for_nice_permission, i64 8) to i64), ptr noundef nonnull @_ZZN4base7Process22CanBackgroundProcessesEvE25check_for_nice_permission, ptr noundef nonnull @_ZN4base12LazyInstanceINS_12_GLOBAL__N_122CheckForNicePermissionENS_25DefaultLazyInstanceTraitsIS2_EEE6OnExitEPv)
  br label %_ZN4base7Process22CanBackgroundProcessesEv.exit

_ZN4base7Process22CanBackgroundProcessesEv.exit:  ; preds = %2, %5, %_ZN4base25DefaultLazyInstanceTraitsINS_12_GLOBAL__N_122CheckForNicePermissionEE3NewEPv.exit.i.i.i
  %14 = load atomic volatile i64, ptr @_ZZN4base7Process22CanBackgroundProcessesEvE25check_for_nice_permission monotonic, align 8
  %15 = inttoptr i64 %14 to ptr
  %16 = load i8, ptr %15, align 1, !tbaa !3, !range !8, !noundef !9
  %17 = trunc nuw i8 %16 to i1
  br i1 %17, label %18, label %23

18:                                               ; preds = %_ZN4base7Process22CanBackgroundProcessesEv.exit
  %19 = select i1 %1, i32 5, i32 0
  %20 = load i32, ptr %0, align 4, !tbaa !10
  %21 = call i32 @setpriority(i32 noundef 0, i32 noundef %20, i32 noundef %19) #5
  %22 = icmp eq i32 %21, 0
  br label %23

23:                                               ; preds = %_ZN4base7Process22CanBackgroundProcessesEv.exit, %18
  %.0 = phi i1 [ %22, %18 ], [ false, %_ZN4base7Process22CanBackgroundProcessesEv.exit ]
  ret i1 %.0
}